target datalayout = "e-m:e-p270:32:32-p271:32:32-p272:64:64-i64:64-i128:128-f80:128-n8:16:32:64-S128"
target triple = "x86_64-pc-linux-gnu"

%struct.Tim_Man_t_ = type { ptr, ptr, ptr, i32, i32, i32, i32, ptr, ptr }
%struct.Tim_Obj_t_ = type { i32, i32, i32, i32, float, float }
%struct.Vec_Ptr_t_ = type { i32, i32, ptr }

; Function Attrs: nounwind uwtable
define internal i32 @Vec_PtrSize(ptr noundef %0) #0 {
  %2 = alloca ptr, align 8
  store ptr %0, ptr %2, align 8
  %3 = load ptr, ptr %2, align 8
  %4 = getelementptr inbounds %struct.Vec_Ptr_t_, ptr %3, i32 0, i32 1
  %5 = load i32, ptr %4, align 4
  ret i32 %5
}

; Function Attrs: nounwind uwtable
define i32 @Tim_ManBoxNum(ptr noundef %0) #0 {
  %2 = alloca ptr, align 8
  store ptr %0, ptr %2, align 8
  %3 = load ptr, ptr %2, align 8
  %4 = getelementptr inbounds %struct.Tim_Man_t_, ptr %3, i32 0, i32 0
  %5 = load ptr, ptr %4, align 8
  %6 = icmp ne ptr %5, null
  br i1 %6, label %7, label %12

7:                                                ; preds = %1
  %8 = load ptr, ptr %2, align 8
  %9 = getelementptr inbounds %struct.Tim_Man_t_, ptr %8, i32 0, i32 0
  %10 = load ptr, ptr %9, align 8
  %11 = call i32 @Vec_PtrSize(ptr noundef %10)
  br label %13

12:                                               ; preds = %1
  br label %13

13:                                               ; preds = %12, %7
  %14 = phi i32 [ %11, %7 ], [ 0, %12 ]
  ret i32 %14
}

; Function Attrs: nounwind uwtable
define i32 @Tim_ManCoNum(ptr noundef %0) #0 {
  %2 = alloca ptr, align 8
  store ptr %0, ptr %2, align 8
  %3 = load ptr, ptr %2, align 8
  %4 = getelementptr inbounds %struct.Tim_Man_t_, ptr %3, i32 0, i32 6
  %5 = load i32, ptr %4, align 4
  ret i32 %5
}

; Function Attrs: nounwind uwtable
define i32 @Tim_ManPoNum(ptr noundef %0) #0 {
  %2 = alloca i32, align 4
  %3 = alloca ptr, align 8
  %4 = alloca i32, align 4
  store ptr %0, ptr %3, align 8
  %5 = load ptr, ptr %3, align 8
  %6 = call i32 @Tim_ManBoxNum(ptr noundef %5)
  %7 = icmp eq i32 %6, 0
  br i1 %7, label %8, label %11

8:                                                ; preds = %1
  %9 = load ptr, ptr %3, align 8
  %10 = call i32 @Tim_ManCoNum(ptr noundef %9)
  store i32 %10, ptr %2, align 4
  br label %25

11:                                               ; preds = %1
  %12 = load ptr, ptr %3, align 8
  %13 = call i32 @Tim_ManBoxNum(ptr noundef %12)
  %14 = sub nsw i32 %13, 1
  store i32 %14, ptr %4, align 4
  %15 = load ptr, ptr %3, align 8
  %16 = call i32 @Tim_ManCoNum(ptr noundef %15)
  %17 = load ptr, ptr %3, align 8
  %18 = load i32, ptr %4, align 4
  %19 = call i32 @Tim_ManBoxInputFirst(ptr noundef %17, i32 noundef %18)
  %20 = load ptr, ptr %3, align 8
  %21 = load i32, ptr %4, align 4
  %22 = call i32 @Tim_ManBoxInputNum(ptr noundef %20, i32 noundef %21)
  %23 = add nsw i32 %19, %22
  %24 = sub nsw i32 %16, %23
  store i32 %24, ptr %2, align 4
  br label %25

25:                                               ; preds = %11, %8
  %26 = load i32, ptr %2, align 4
  ret i32 %26
}

; Function Attrs: nounwind uwtable
define ptr @Tim_ManGetReqTimes(ptr noundef %0) #0 {
  %2 = alloca ptr, align 8
  %3 = alloca ptr, align 8
  %4 = alloca ptr, align 8
  %5 = alloca ptr, align 8
  %6 = alloca i32, align 4
  %7 = alloca i32, align 4
  store ptr %0, ptr %3, align 8
  store i32 0, ptr %7, align 4
  store i32 0, ptr %6, align 4
  br label %8

8:                                                ; preds = %38, %1
  %9 = load i32, ptr %6, align 4
  %10 = load ptr, ptr %3, align 8
  %11 = getelementptr inbounds %struct.Tim_Man_t_, ptr %10, i32 0, i32 6
  %12 = load i32, ptr %11, align 4
  %13 = icmp slt i32 %9, %12
  br i1 %13, label %14, label %22

14:                                               ; preds = %8
  %15 = load ptr, ptr %3, align 8
  %16 = getelementptr inbounds %struct.Tim_Man_t_, ptr %15, i32 0, i32 8
  %17 = load ptr, ptr %16, align 8
  %18 = load i32, ptr %6, align 4
  %19 = sext i32 %18 to i64
  %20 = getelementptr inbounds %struct.Tim_Obj_t_, ptr %17, i64 %19
  store ptr %20, ptr %5, align 8
  %21 = icmp ne ptr %20, null
  br label %22

22:                                               ; preds = %14, %8
  %23 = phi i1 [ false, %8 ], [ %21, %14 ]
  br i1 %23, label %24, label %41

24:                                               ; preds = %22
  %25 = load ptr, ptr %5, align 8
  %26 = getelementptr inbounds %struct.Tim_Obj_t_, ptr %25, i32 0, i32 2
  %27 = load i32, ptr %26, align 4
  %28 = icmp sge i32 %27, 0
  br i1 %28, label %29, label %30

29:                                               ; preds = %24
  br label %37

30:                                               ; preds = %24
  %31 = load ptr, ptr %5, align 8
  %32 = getelementptr inbounds %struct.Tim_Obj_t_, ptr %31, i32 0, i32 5
  %33 = load float, ptr %32, align 4
  %34 = fcmp une float %33, 1.000000e+09
  br i1 %34, label %35, label %36

35:                                               ; preds = %30
  br label %41

36:                                               ; preds = %30
  br label %37

37:                                               ; preds = %36, %29
  br label %38

38:                                               ; preds = %37
  %39 = load i32, ptr %6, align 4
  %40 = add nsw i32 %39, 1
  store i32 %40, ptr %6, align 4
  br label %8, !llvm.loop !33

41:                                               ; preds = %35, %22
  %42 = load i32, ptr %6, align 4
  %43 = load ptr, ptr %3, align 8
  %44 = call i32 @Tim_ManPoNum(ptr noundef %43)
  %45 = icmp eq i32 %42, %44
  br i1 %45, label %46, label %47

46:                                               ; preds = %41
  store ptr null, ptr %2, align 8
  br label %94

47:                                               ; preds = %41
  %48 = load ptr, ptr %3, align 8
  %49 = call i32 @Tim_ManCoNum(ptr noundef %48)
  %50 = sext i32 %49 to i64
  %51 = mul i64 4, %50
  %52 = call noalias ptr @malloc(i64 noundef %51) #9
  %53 = load ptr, ptr %3, align 8
  %54 = call i32 @Tim_ManCoNum(ptr noundef %53)
  %55 = sext i32 %54 to i64
  %56 = mul i64 4, %55
  call void @llvm.memset.p0.i64(ptr align 1 %52, i8 -1, i64 %56, i1 false)
  store ptr %52, ptr %4, align 8
  store i32 0, ptr %6, align 4
  br label %57

57:                                               ; preds = %89, %47
  %58 = load i32, ptr %6, align 4
  %59 = load ptr, ptr %3, align 8
  %60 = getelementptr inbounds %struct.Tim_Man_t_, ptr %59, i32 0, i32 6
  %61 = load i32, ptr %60, align 4
  %62 = icmp slt i32 %58, %61
  br i1 %62, label %63, label %71

63:                                               ; preds = %57
  %64 = load ptr, ptr %3, align 8
  %65 = getelementptr inbounds %struct.Tim_Man_t_, ptr %64, i32 0, i32 8
  %66 = load ptr, ptr %65, align 8
  %67 = load i32, ptr %6, align 4
  %68 = sext i32 %67 to i64
  %69 = getelementptr inbounds %struct.Tim_Obj_t_, ptr %66, i64 %68
  store ptr %69, ptr %5, align 8
  %70 = icmp ne ptr %69, null
  br label %71

71:                                               ; preds = %63, %57
  %72 = phi i1 [ false, %57 ], [ %70, %63 ]
  br i1 %72, label %73, label %92

73:                                               ; preds = %71
  %74 = load ptr, ptr %5, align 8
  %75 = getelementptr inbounds %struct.Tim_Obj_t_, ptr %74, i32 0, i32 2
  %76 = load i32, ptr %75, align 4
  %77 = icmp sge i32 %76, 0
  br i1 %77, label %78, label %79

78:                                               ; preds = %73
  br label %88

79:                                               ; preds = %73
  %80 = load ptr, ptr %5, align 8
  %81 = getelementptr inbounds %struct.Tim_Obj_t_, ptr %80, i32 0, i32 4
  %82 = load float, ptr %81, align 4
  %83 = load ptr, ptr %4, align 8
  %84 = load i32, ptr %7, align 4
  %85 = add nsw i32 %84, 1
  store i32 %85, ptr %7, align 4
  %86 = sext i32 %84 to i64
  %87 = getelementptr inbounds float, ptr %83, i64 %86
  store float %82, ptr %87, align 4
  br label %88

88:                                               ; preds = %79, %78
  br label %89

89:                                               ; preds = %88
  %90 = load i32, ptr %6, align 4
  %91 = add nsw i32 %90, 1
  store i32 %91, ptr %6, align 4
  br label %57, !llvm.loop !34

92:                                               ; preds = %71
  %93 = load ptr, ptr %4, align 8
  store ptr %93, ptr %2, align 8
  br label %94

94:                                               ; preds = %92, %46
  %95 = load ptr, ptr %2, align 8
  ret ptr %95
}