; Function Attrs: nounwind uwtable
define noalias noundef ptr @Tim_ManGetReqTimes(ptr noundef %0) local_unnamed_addr #0 {
  %2 = getelementptr inbounds nuw i8, ptr %0, i64 36
  %3 = load i32, ptr %2, align 4
  %4 = icmp sgt i32 %3, 0
  br i1 %4, label %.lr.ph, label %.critedge

.lr.ph:                                           ; preds = %1
  %5 = getelementptr inbounds nuw i8, ptr %0, i64 48
  %6 = load ptr, ptr %5, align 8
  %.not = icmp eq ptr %6, null
  br i1 %.not, label %.critedge, label %.lr.ph.split.preheader

.lr.ph.split.preheader:                           ; preds = %.lr.ph
  %wide.trip.count = zext nneg i32 %3 to i64
  br label %.lr.ph.split

.lr.ph.split:                                     ; preds = %.lr.ph.split.preheader, %15
  %indvars.iv = phi i64 [ 0, %.lr.ph.split.preheader ], [ %indvars.iv.next, %15 ]
  %7 = getelementptr inbounds nuw %struct.Tim_Obj_t_, ptr %6, i64 %indvars.iv
  %8 = getelementptr inbounds nuw i8, ptr %7, i64 8
  %9 = load i32, ptr %8, align 4
  %10 = icmp sgt i32 %9, -1
  br i1 %10, label %15, label %11

11:                                               ; preds = %.lr.ph.split
  %12 = getelementptr inbounds nuw i8, ptr %7, i64 20
  %13 = load float, ptr %12, align 4
  %14 = fcmp une float %13, 1.000000e+09
  br i1 %14, label %.critedge.loopexit.split.loop.exit51, label %15

15:                                               ; preds = %.lr.ph.split, %11
  %indvars.iv.next = add nuw nsw i64 %indvars.iv, 1
  %exitcond.not = icmp eq i64 %indvars.iv.next, %wide.trip.count
  br i1 %exitcond.not, label %.critedge, label %.lr.ph.split, !llvm.loop !34

.critedge.loopexit.split.loop.exit51:             ; preds = %11
  %16 = trunc nuw nsw i64 %indvars.iv to i32
  br label %.critedge

.critedge:                                        ; preds = %15, %.critedge.loopexit.split.loop.exit51, %.lr.ph, %1
  %.023.lcssa = phi i32 [ 0, %1 ], [ 0, %.lr.ph ], [ %16, %.critedge.loopexit.split.loop.exit51 ], [ %3, %15 ]
  %17 = load ptr, ptr %0, align 8
  %.not.i.i = icmp eq ptr %17, null
  br i1 %.not.i.i, label %Tim_ManPoNum.exit, label %Tim_ManBoxNum.exit.i

Tim_ManBoxNum.exit.i:                             ; preds = %.critedge
  %18 = getelementptr i8, ptr %17, i64 4
  %.val.i.i = load i32, ptr %18, align 4
  %19 = icmp eq i32 %.val.i.i, 0
  br i1 %19, label %Tim_ManPoNum.exit, label %Tim_ManBoxNum.exit10.i

Tim_ManBoxNum.exit10.i:                           ; preds = %Tim_ManBoxNum.exit.i
  %20 = add nsw i32 %.val.i.i, -1
  %21 = tail call i32 @Tim_ManBoxInputFirst(ptr noundef nonnull %0, i32 noundef %20) #18
  %22 = tail call i32 @Tim_ManBoxInputNum(ptr noundef nonnull %0, i32 noundef %20) #18
  %23 = add i32 %21, %22
  %24 = sub i32 %3, %23
  br label %Tim_ManPoNum.exit

Tim_ManPoNum.exit:                                ; preds = %.critedge, %Tim_ManBoxNum.exit.i, %Tim_ManBoxNum.exit10.i
  %.0.i = phi i32 [ %24, %Tim_ManBoxNum.exit10.i ], [ %3, %Tim_ManBoxNum.exit.i ], [ %3, %.critedge ]
  %25 = icmp eq i32 %.023.lcssa, %.0.i
  br i1 %25, label %.critedge2, label %26

26:                                               ; preds = %Tim_ManPoNum.exit
  %27 = load i32, ptr %2, align 4
  %28 = sext i32 %27 to i64
  %29 = shl nsw i64 %28, 2
  %30 = tail call noalias ptr @malloc(i64 noundef %29) #19
  tail call void @llvm.memset.p0.i64(ptr align 1 %30, i8 -1, i64 %29, i1 false)
  %31 = icmp sgt i32 %27, 0
  br i1 %31, label %.lr.ph43, label %.critedge2

.lr.ph43:                                         ; preds = %26
  %32 = getelementptr inbounds nuw i8, ptr %0, i64 48
  %33 = load ptr, ptr %32, align 8
  %.not28 = icmp eq ptr %33, null
  br i1 %.not28, label %.critedge2, label %.lr.ph43.split.preheader

.lr.ph43.split.preheader:                         ; preds = %.lr.ph43
  %wide.trip.count49 = zext nneg i32 %27 to i64
  br label %.lr.ph43.split

.lr.ph43.split:                                   ; preds = %.lr.ph43.split.preheader, %44
  %indvars.iv46 = phi i64 [ 0, %.lr.ph43.split.preheader ], [ %indvars.iv.next47, %44 ]
  %.042 = phi i32 [ 0, %.lr.ph43.split.preheader ], [ %.1, %44 ]
  %34 = getelementptr inbounds nuw %struct.Tim_Obj_t_, ptr %33, i64 %indvars.iv46
  %35 = getelementptr inbounds nuw i8, ptr %34, i64 8
  %36 = load i32, ptr %35, align 4
  %37 = icmp sgt i32 %36, -1
  br i1 %37, label %44, label %38

38:                                               ; preds = %.lr.ph43.split
  %39 = getelementptr inbounds nuw i8, ptr %34, i64 16
  %40 = load float, ptr %39, align 4
  %41 = add nsw i32 %.042, 1
  %42 = sext i32 %.042 to i64
  %43 = getelementptr inbounds float, ptr %30, i64 %42
  store float %40, ptr %43, align 4
  br label %44

44:                                               ; preds = %38, %.lr.ph43.split
  %.1 = phi i32 [ %.042, %.lr.ph43.split ], [ %41, %38 ]
  %indvars.iv.next47 = add nuw nsw i64 %indvars.iv46, 1
  %exitcond50.not = icmp eq i64 %indvars.iv.next47, %wide.trip.count49
  br i1 %exitcond50.not, label %.critedge2, label %.lr.ph43.split, !llvm.loop !35

.critedge2:                                       ; preds = %44, %26, %.lr.ph43, %Tim_ManPoNum.exit
  %.025 = phi ptr [ null, %Tim_ManPoNum.exit ], [ %30, %.lr.ph43 ], [ %30, %26 ], [ %30, %44 ]
  ret ptr %.025
}